target datalayout = "e-m:e-p270:32:32-p271:32:32-p272:64:64-i64:64-i128:128-f80:128-n8:16:32:64-S128"
target triple = "x86_64-pc-linux-gnu"

%struct.s_xdemitconf = type { i64, i64, i64, ptr, ptr, ptr }
%struct.ff_regs = type { i32, ptr }
%struct.ff_reg = type { %struct.re_pattern_buffer, i32 }
%struct.re_pattern_buffer = type { ptr, i64, i64, i64, ptr, ptr, i64, i8 }

; Function Attrs: nounwind uwtable
define dso_local void @xdiff_clear_find_func(ptr noundef %0) #0 {
  %2 = alloca ptr, align 8
  %3 = alloca i32, align 4
  %4 = alloca ptr, align 8
  store ptr %0, ptr %2, align 8, !tbaa !11
  %5 = load ptr, ptr %2, align 8, !tbaa !11
  %6 = getelementptr inbounds nuw %struct.s_xdemitconf, ptr %5, i32 0, i32 3
  %7 = load ptr, ptr %6, align 8, !tbaa !61
  %8 = icmp ne ptr %7, null
  br i1 %8, label %9, label %39

9:                                                ; preds = %1
  call void @llvm.lifetime.start.p0(i64 4, ptr %3) #9
  call void @llvm.lifetime.start.p0(i64 8, ptr %4) #9
  %10 = load ptr, ptr %2, align 8, !tbaa !11
  %11 = getelementptr inbounds nuw %struct.s_xdemitconf, ptr %10, i32 0, i32 4
  %12 = load ptr, ptr %11, align 8, !tbaa !62
  store ptr %12, ptr %4, align 8, !tbaa !63
  store i32 0, ptr %3, align 4, !tbaa !25
  br label %13

13:                                               ; preds = %27, %9
  %14 = load i32, ptr %3, align 4, !tbaa !25
  %15 = load ptr, ptr %4, align 8, !tbaa !63
  %16 = getelementptr inbounds nuw %struct.ff_regs, ptr %15, i32 0, i32 0
  %17 = load i32, ptr %16, align 8, !tbaa !65
  %18 = icmp slt i32 %14, %17
  br i1 %18, label %19, label %30

19:                                               ; preds = %13
  %20 = load ptr, ptr %4, align 8, !tbaa !63
  %21 = getelementptr inbounds nuw %struct.ff_regs, ptr %20, i32 0, i32 1
  %22 = load ptr, ptr %21, align 8, !tbaa !69
  %23 = load i32, ptr %3, align 4, !tbaa !25
  %24 = sext i32 %23 to i64
  %25 = getelementptr inbounds %struct.ff_reg, ptr %22, i64 %24
  %26 = getelementptr inbounds nuw %struct.ff_reg, ptr %25, i32 0, i32 0
  call void @regfree(ptr noundef %26)
  br label %27

27:                                               ; preds = %19
  %28 = load i32, ptr %3, align 4, !tbaa !25
  %29 = add nsw i32 %28, 1
  store i32 %29, ptr %3, align 4, !tbaa !25
  br label %13, !llvm.loop !81

30:                                               ; preds = %13
  %31 = load ptr, ptr %4, align 8, !tbaa !63
  %32 = getelementptr inbounds nuw %struct.ff_regs, ptr %31, i32 0, i32 1
  %33 = load ptr, ptr %32, align 8, !tbaa !69
  call void @free(ptr noundef %33) #9
  %34 = load ptr, ptr %4, align 8, !tbaa !63
  call void @free(ptr noundef %34) #9
  %35 = load ptr, ptr %2, align 8, !tbaa !11
  %36 = getelementptr inbounds nuw %struct.s_xdemitconf, ptr %35, i32 0, i32 3
  store ptr null, ptr %36, align 8, !tbaa !61
  %37 = load ptr, ptr %2, align 8, !tbaa !11
  %38 = getelementptr inbounds nuw %struct.s_xdemitconf, ptr %37, i32 0, i32 4
  store ptr null, ptr %38, align 8, !tbaa !62
  call void @llvm.lifetime.end.p0(i64 8, ptr %4) #9
  call void @llvm.lifetime.end.p0(i64 4, ptr %3) #9
  br label %39

39:                                               ; preds = %30, %1
  ret void
}