; Function Attrs: nounwind uwtable
define dso_local void @xdiff_clear_find_func(ptr noundef captures(none) %0) local_unnamed_addr #0 {
  %2 = getelementptr inbounds nuw i8, ptr %0, i64 24
  %3 = load ptr, ptr %2, align 8, !tbaa !46
  %.not = icmp eq ptr %3, null
  br i1 %.not, label %18, label %4

4:                                                ; preds = %1
  %5 = getelementptr inbounds nuw i8, ptr %0, i64 32
  %6 = load ptr, ptr %5, align 8, !tbaa !47
  %7 = load i32, ptr %6, align 8, !tbaa !48
  %8 = icmp sgt i32 %7, 0
  br i1 %8, label %.lr.ph, label %._crit_edge

.lr.ph:                                           ; preds = %4
  %9 = getelementptr inbounds nuw i8, ptr %6, i64 8
  br label %10

10:                                               ; preds = %.lr.ph, %10
  %indvars.iv = phi i64 [ 0, %.lr.ph ], [ %indvars.iv.next, %10 ]
  %11 = load ptr, ptr %9, align 8, !tbaa !52
  %12 = getelementptr inbounds nuw %struct.ff_reg, ptr %11, i64 %indvars.iv
  tail call void @regfree(ptr noundef %12) #13
  %indvars.iv.next = add nuw nsw i64 %indvars.iv, 1
  %13 = load i32, ptr %6, align 8, !tbaa !48
  %14 = sext i32 %13 to i64
  %15 = icmp slt i64 %indvars.iv.next, %14
  br i1 %15, label %10, label %._crit_edge, !llvm.loop !63

._crit_edge:                                      ; preds = %10, %4
  %16 = getelementptr inbounds nuw i8, ptr %6, i64 8
  %17 = load ptr, ptr %16, align 8, !tbaa !52
  tail call void @free(ptr noundef %17) #13
  tail call void @free(ptr noundef nonnull %6) #13
  tail call void @llvm.memset.p0.i64(ptr noundef nonnull align 8 dereferenceable(16) %2, i8 0, i64 16, i1 false)
  br label %18

18:                                               ; preds = %._crit_edge, %1
  ret void
}